target datalayout = "e-m:e-p270:32:32-p271:32:32-p272:64:64-i64:64-i128:128-f80:128-n8:16:32:64-S128"
target triple = "x86_64-pc-linux-gnu"

%struct.Curl_handler = type { ptr, ptr, ptr, ptr, ptr, ptr, ptr, ptr, ptr, ptr, ptr, ptr, ptr, ptr, ptr, ptr, ptr, i32, i32, i32, i32 }

@.str.5 = private unnamed_addr constant [4 x i8] c"all\00", align 1

; Function Attrs: nounwind uwtable
define internal i32 @protocol2num(ptr noundef %0, ptr noundef %1) #0 {
  %3 = alloca i32, align 4
  %4 = alloca ptr, align 8
  %5 = alloca ptr, align 8
  %6 = alloca ptr, align 8
  %7 = alloca i64, align 8
  %8 = alloca ptr, align 8
  %9 = alloca i32, align 4
  store ptr %0, ptr %4, align 8, !tbaa !9
  store ptr %1, ptr %5, align 8, !tbaa !243
  %10 = load ptr, ptr %5, align 8, !tbaa !243
  store i32 0, ptr %10, align 4, !tbaa !23
  %11 = load ptr, ptr %4, align 8, !tbaa !9
  %12 = icmp ne ptr %11, null
  br i1 %12, label %14, label %13

13:                                               ; preds = %2
  store i32 43, ptr %3, align 4
  br label %76

14:                                               ; preds = %2
  %15 = load ptr, ptr %4, align 8, !tbaa !9
  %16 = call i32 @curl_strequal(ptr noundef %15, ptr noundef @.str.5)
  %17 = icmp ne i32 %16, 0
  br i1 %17, label %18, label %20

18:                                               ; preds = %14
  %19 = load ptr, ptr %5, align 8, !tbaa !243
  store i32 -1, ptr %19, align 4, !tbaa !23
  store i32 0, ptr %3, align 4
  br label %76

20:                                               ; preds = %14
  br label %21

21:                                               ; preds = %68, %20
  call void @llvm.lifetime.start.p0(i64 8, ptr %6) #7
  %22 = load ptr, ptr %4, align 8, !tbaa !9
  store ptr %22, ptr %6, align 8, !tbaa !9
  call void @llvm.lifetime.start.p0(i64 8, ptr %7) #7
  %23 = load ptr, ptr %4, align 8, !tbaa !9
  %24 = call ptr @strchr(ptr noundef %23, i32 noundef 44) #6
  store ptr %24, ptr %4, align 8, !tbaa !9
  %25 = load ptr, ptr %4, align 8, !tbaa !9
  %26 = icmp ne ptr %25, null
  br i1 %26, label %27, label %33

27:                                               ; preds = %21
  %28 = load ptr, ptr %4, align 8, !tbaa !9
  %29 = load ptr, ptr %6, align 8, !tbaa !9
  %30 = ptrtoint ptr %28 to i64
  %31 = ptrtoint ptr %29 to i64
  %32 = sub i64 %30, %31
  br label %36

33:                                               ; preds = %21
  %34 = load ptr, ptr %6, align 8, !tbaa !9
  %35 = call i64 @strlen(ptr noundef %34) #6
  br label %36

36:                                               ; preds = %33, %27
  %37 = phi i64 [ %32, %27 ], [ %35, %33 ]
  store i64 %37, ptr %7, align 8, !tbaa !22
  %38 = load i64, ptr %7, align 8, !tbaa !22
  %39 = icmp ne i64 %38, 0
  br i1 %39, label %40, label %57

40:                                               ; preds = %36
  call void @llvm.lifetime.start.p0(i64 8, ptr %8) #7
  %41 = load ptr, ptr %6, align 8, !tbaa !9
  %42 = load i64, ptr %7, align 8, !tbaa !22
  %43 = call ptr @Curl_getn_scheme_handler(ptr noundef %41, i64 noundef %42)
  store ptr %43, ptr %8, align 8, !tbaa !245
  %44 = load ptr, ptr %8, align 8, !tbaa !245
  %45 = icmp ne ptr %44, null
  br i1 %45, label %47, label %46

46:                                               ; preds = %40
  store i32 1, ptr %3, align 4
  store i32 1, ptr %9, align 4
  br label %54

47:                                               ; preds = %40
  %48 = load ptr, ptr %8, align 8, !tbaa !245
  %49 = getelementptr inbounds nuw %struct.Curl_handler, ptr %48, i32 0, i32 18
  %50 = load i32, ptr %49, align 4, !tbaa !247
  %51 = load ptr, ptr %5, align 8, !tbaa !243
  %52 = load i32, ptr %51, align 4, !tbaa !23
  %53 = or i32 %52, %50
  store i32 %53, ptr %51, align 4, !tbaa !23
  store i32 0, ptr %9, align 4
  br label %54

54:                                               ; preds = %47, %46
  call void @llvm.lifetime.end.p0(i64 8, ptr %8) #7
  %55 = load i32, ptr %9, align 4
  switch i32 %55, label %58 [
    i32 0, label %56
  ]

56:                                               ; preds = %54
  br label %57

57:                                               ; preds = %56, %36
  store i32 0, ptr %9, align 4
  br label %58

58:                                               ; preds = %57, %54
  call void @llvm.lifetime.end.p0(i64 8, ptr %7) #7
  call void @llvm.lifetime.end.p0(i64 8, ptr %6) #7
  %59 = load i32, ptr %9, align 4
  switch i32 %59, label %78 [
    i32 0, label %60
    i32 1, label %76
  ]

60:                                               ; preds = %58
  br label %61

61:                                               ; preds = %60
  %62 = load ptr, ptr %4, align 8, !tbaa !9
  %63 = icmp ne ptr %62, null
  br i1 %63, label %64, label %68

64:                                               ; preds = %61
  %65 = load ptr, ptr %4, align 8, !tbaa !9
  %66 = getelementptr inbounds nuw i8, ptr %65, i32 1
  store ptr %66, ptr %4, align 8, !tbaa !9
  %67 = icmp ne ptr %65, null
  br label %68

68:                                               ; preds = %64, %61
  %69 = phi i1 [ false, %61 ], [ %67, %64 ]
  br i1 %69, label %21, label %70, !llvm.loop !249

70:                                               ; preds = %68
  %71 = load ptr, ptr %5, align 8, !tbaa !243
  %72 = load i32, ptr %71, align 4, !tbaa !23
  %73 = icmp ne i32 %72, 0
  br i1 %73, label %75, label %74

74:                                               ; preds = %70
  store i32 43, ptr %3, align 4
  br label %76

75:                                               ; preds = %70
  store i32 0, ptr %3, align 4
  br label %76

76:                                               ; preds = %75, %74, %58, %18, %13
  %77 = load i32, ptr %3, align 4
  ret i32 %77

78:                                               ; preds = %58
  unreachable
}