; Function Attrs: nounwind uwtable
define internal fastcc range(i32 0, 44) i32 @protocol2num(ptr noundef nonnull %0, ptr noundef captures(none) initializes((0, 4)) %1) unnamed_addr #0 {
  store i32 0, ptr %1, align 4, !tbaa !19
  %3 = tail call i32 @curl_strequal(ptr noundef nonnull %0, ptr noundef nonnull @.str.5) #10
  %.not = icmp eq i32 %3, 0
  br i1 %.not, label %.preheader, label %4

4:                                                ; preds = %2
  store i32 -1, ptr %1, align 4, !tbaa !19
  br label %.critedge34

.preheader:                                       ; preds = %2, %21
  %.023 = phi ptr [ %22, %21 ], [ %0, %2 ]
  %5 = tail call ptr @strchr(ptr noundef nonnull dereferenceable(1) %.023, i32 noundef 44) #11
  %.not29 = icmp eq ptr %5, null
  br i1 %.not29, label %10, label %6

6:                                                ; preds = %.preheader
  %7 = ptrtoint ptr %5 to i64
  %8 = ptrtoint ptr %.023 to i64
  %9 = sub i64 %7, %8
  br label %12

10:                                               ; preds = %.preheader
  %11 = tail call i64 @strlen(ptr noundef nonnull dereferenceable(1) %.023) #11
  br label %12

12:                                               ; preds = %10, %6
  %13 = phi i64 [ %9, %6 ], [ %11, %10 ]
  %.not30 = icmp eq i64 %13, 0
  br i1 %.not30, label %21, label %14

14:                                               ; preds = %12
  %15 = tail call ptr @Curl_getn_scheme_handler(ptr noundef nonnull %.023, i64 noundef %13) #10
  %.not31.not = icmp eq ptr %15, null
  br i1 %.not31.not, label %.critedge34, label %16

16:                                               ; preds = %14
  %17 = getelementptr inbounds nuw i8, ptr %15, i64 140
  %18 = load i32, ptr %17, align 4, !tbaa !219
  %19 = load i32, ptr %1, align 4, !tbaa !19
  %20 = or i32 %19, %18
  store i32 %20, ptr %1, align 4, !tbaa !19
  br label %21

21:                                               ; preds = %16, %12
  %22 = getelementptr inbounds nuw i8, ptr %5, i64 1
  br i1 %.not29, label %.critedge, label %.preheader

.critedge:                                        ; preds = %21
  %23 = load i32, ptr %1, align 4, !tbaa !19
  %.not32 = icmp eq i32 %23, 0
  %. = select i1 %.not32, i32 43, i32 0
  br label %.critedge34

.critedge34:                                      ; preds = %14, %.critedge, %4
  %.021 = phi i32 [ 0, %4 ], [ %., %.critedge ], [ 1, %14 ]
  ret i32 %.021
}